; Function Attrs: mustprogress nofree norecurse nosync nounwind willreturn memory(argmem: read) uwtable
define i64 @_ZNK3net14StrikeRegister13GetValidRangeEj(ptr noundef nonnull readonly align 8 captures(none) dereferenceable(56) %0, i32 noundef %1) local_unnamed_addr #4 align 2 {
  %3 = getelementptr inbounds nuw i8, ptr %0, i64 20
  %4 = load i32, ptr %3, align 4, !tbaa !20
  %5 = icmp ult i32 %1, %4
  br i1 %5, label %16, label %6

6:                                                ; preds = %2
  %7 = getelementptr inbounds nuw i8, ptr %0, i64 4
  %8 = load i32, ptr %7, align 4, !tbaa !18
  %.not = icmp ult i32 %1, %8
  %9 = sub i32 %1, %8
  %.sroa.speculated13 = tail call i32 @llvm.umax.i32(i32 %4, i32 %9)
  %.0 = select i1 %.not, i32 %4, i32 %.sroa.speculated13
  %10 = sub nuw i32 %1, %4
  %.sroa.speculated = tail call i32 @llvm.umin.i32(i32 %8, i32 %10)
  %11 = add i32 %.sroa.speculated, %1
  %12 = zext i32 %11 to i64
  %13 = shl nuw i64 %12, 32
  %14 = zext i32 %.0 to i64
  %15 = or disjoint i64 %13, %14
  br label %16

16:                                               ; preds = %2, %6
  %.sroa.019.0.insert.insert = phi i64 [ %15, %6 ], [ 4294967295, %2 ]
  ret i64 %.sroa.019.0.insert.insert
}